; Function Attrs: mustprogress nounwind uwtable
define internal noundef zeroext i1 @_ZN4llvm20MCAsmParserExtension15HandleDirectiveIN12_GLOBAL__N_114COFFMasmParserETnMT_FbNS_9StringRefENS_5SMLocEEXadL_ZNS3_26ParseSEHDirectiveEndPrologES5_S6_EEEEbPS0_S5_S6_(ptr nocapture noundef readonly %0, ptr nocapture readnone %1, i64 %2, ptr %3) #0 align 2 {
  %5 = getelementptr i8, ptr %0, i64 8
  %.val = load ptr, ptr %5, align 8
  %6 = load ptr, ptr %.val, align 8
  %7 = getelementptr inbounds i8, ptr %6, i64 56
  %8 = load ptr, ptr %7, align 8
  %9 = tail call noundef nonnull align 8 dereferenceable(288) ptr %8(ptr noundef nonnull align 8 dereferenceable(34) %.val) #16
  %10 = load ptr, ptr %9, align 8
  %11 = getelementptr inbounds i8, ptr %10, i64 1144
  %12 = load ptr, ptr %11, align 8
  tail call void %12(ptr noundef nonnull align 8 dereferenceable(288) %9, ptr %3) #16
  ret i1 false
}